---
triple:          'arm64-apple-darwin'
binary-path:     Knights
relocations:
  - { offsetInCU: 0x3C7B, offset: 0x3C7B, size: 0x8, addend: 0x0, symName: __ZNSt3__16copy_nB8ue170006IPKcmPcEENS_9enable_ifIXsr37__has_random_access_iterator_categoryIT_EE5valueET1_E4typeES5_T0_S6_, symObjAddr: 0x28D0, symBinAddr: 0x100005474, symSize: 0x44 }
  - { offsetInCU: 0x519D, offset: 0x519D, size: 0x8, addend: 0x0, symName: __ZNSt3__1plB8ue170006IcNS_11char_traitsIcEENS_9allocatorIcEEEENS_12basic_stringIT_T0_T1_EEOS9_SA_, symObjAddr: 0x538, symBinAddr: 0x1000030DC, symSize: 0x40 }
  - { offsetInCU: 0x51F5, offset: 0x51F5, size: 0x8, addend: 0x0, symName: __ZNSt3__1plB8ue170006IcNS_11char_traitsIcEENS_9allocatorIcEEEENS_12basic_stringIT_T0_T1_EERKS9_PKS6_, symObjAddr: 0x578, symBinAddr: 0x10000311C, symSize: 0x11C }
  - { offsetInCU: 0x5296, offset: 0x5296, size: 0x8, addend: 0x0, symName: __ZNSt3__112__to_addressB8ue170006I11knight_dataEEPT_S3_, symObjAddr: 0x19BC, symBinAddr: 0x100004560, symSize: 0x14 }
  - { offsetInCU: 0x52CB, offset: 0x52CB, size: 0x8, addend: 0x0, symName: __ZNSt3__119__libcpp_deallocateB8ue170006EPvmm, symObjAddr: 0x1A84, symBinAddr: 0x100004628, symSize: 0x30 }
  - { offsetInCU: 0x5313, offset: 0x5313, size: 0x8, addend: 0x0, symName: __ZNSt3__127__do_deallocate_handle_sizeB8ue170006IJEEEvPvmDpT_, symObjAddr: 0x1AB4, symBinAddr: 0x100004658, symSize: 0x28 }
  - { offsetInCU: 0x5351, offset: 0x5351, size: 0x8, addend: 0x0, symName: __ZNSt3__124__libcpp_operator_deleteB8ue170006IJPvEEEvDpT_, symObjAddr: 0x1ADC, symBinAddr: 0x100004680, symSize: 0x24 }
  - { offsetInCU: 0x5386, offset: 0x5386, size: 0x8, addend: 0x0, symName: __ZNSt3__118__constexpr_strlenB8ue170006EPKc, symObjAddr: 0x1C24, symBinAddr: 0x1000047C8, symSize: 0x24 }
  - { offsetInCU: 0x53E5, offset: 0x53E5, size: 0x8, addend: 0x0, symName: __ZNSt3__112__to_addressB8ue170006IcEEPT_S2_, symObjAddr: 0x20A8, symBinAddr: 0x100004C4C, symSize: 0x14 }
  - { offsetInCU: 0x561C, offset: 0x561C, size: 0x8, addend: 0x0, symName: __ZNSt3__120__throw_length_errorB8ue170006EPKc, symObjAddr: 0x26F8, symBinAddr: 0x10000529C, symSize: 0x64 }
  - { offsetInCU: 0x5646, offset: 0x5646, size: 0x8, addend: 0x0, symName: __ZNSt3__117__libcpp_allocateB8ue170006Emm, symObjAddr: 0x2884, symBinAddr: 0x100005428, symSize: 0x28 }
  - { offsetInCU: 0x5683, offset: 0x5683, size: 0x8, addend: 0x0, symName: __ZNSt3__121__libcpp_operator_newB8ue170006IJmEEEPvDpT_, symObjAddr: 0x28AC, symBinAddr: 0x100005450, symSize: 0x24 }
  - { offsetInCU: 0x56BC, offset: 0x56BC, size: 0x8, addend: 0x0, symName: __ZNSt3__14copyB8ue170006IPKcPcEET0_T_S5_S4_, symObjAddr: 0x2914, symBinAddr: 0x1000054B8, symSize: 0x40 }
  - { offsetInCU: 0x5716, offset: 0x5716, size: 0x8, addend: 0x0, symName: __ZNSt3__16__copyB8ue170006INS_17_ClassicAlgPolicyEPKcS3_PcEENS_4pairIT0_T2_EES6_T1_S7_, symObjAddr: 0x2954, symBinAddr: 0x1000054F8, symSize: 0x44 }
  - { offsetInCU: 0x5782, offset: 0x5782, size: 0x8, addend: 0x0, symName: __ZNSt3__123__dispatch_copy_or_moveB8ue170006INS_17_ClassicAlgPolicyENS_11__copy_loopIS1_EENS_14__copy_trivialEPKcS6_PcEENS_4pairIT2_T4_EES9_T3_SA_, symObjAddr: 0x2998, symBinAddr: 0x10000553C, symSize: 0x44 }
  - { offsetInCU: 0x5800, offset: 0x5800, size: 0x8, addend: 0x0, symName: __ZNSt3__121__unwrap_and_dispatchB8ue170006INS_10__overloadINS_11__copy_loopINS_17_ClassicAlgPolicyEEENS_14__copy_trivialEEEPKcS8_PcLi0EEENS_4pairIT0_T2_EESB_T1_SC_, symObjAddr: 0x29DC, symBinAddr: 0x100005580, symSize: 0xB4 }
  - { offsetInCU: 0x588E, offset: 0x588E, size: 0x8, addend: 0x0, symName: __ZNSt3__114__unwrap_rangeB8ue170006IPKcS2_EENS_4pairIT0_S4_EET_S6_, symObjAddr: 0x2A90, symBinAddr: 0x100005634, symSize: 0x60 }
  - { offsetInCU: 0x5A23, offset: 0x5A23, size: 0x8, addend: 0x0, symName: __ZNSt3__113__unwrap_iterB8ue170006IPcNS_18__unwrap_iter_implIS1_Lb1EEELi0EEEDTclsrT0_8__unwrapclsr3stdE7declvalIT_EEEES5_, symObjAddr: 0x2B38, symBinAddr: 0x1000056DC, symSize: 0x24 }
  - { offsetInCU: 0x5A67, offset: 0x5A67, size: 0x8, addend: 0x0, symName: __ZNSt3__19make_pairB8ue170006IPKcPcEENS_4pairINS_18__unwrap_ref_decayIT_E4typeENS5_IT0_E4typeEEEOS6_OS9_, symObjAddr: 0x2B5C, symBinAddr: 0x100005700, symSize: 0x38 }
  - { offsetInCU: 0x5AB6, offset: 0x5AB6, size: 0x8, addend: 0x0, symName: __ZNSt3__114__rewrap_rangeB8ue170006IPKcS2_EET_S3_T0_, symObjAddr: 0x2B94, symBinAddr: 0x100005738, symSize: 0x2C }
  - { offsetInCU: 0x5B02, offset: 0x5B02, size: 0x8, addend: 0x0, symName: __ZNSt3__113__rewrap_iterB8ue170006IPcS1_NS_18__unwrap_iter_implIS1_Lb1EEEEET_S4_T0_, symObjAddr: 0x2BC0, symBinAddr: 0x100005764, symSize: 0x3C }
  - { offsetInCU: 0x5B57, offset: 0x5B57, size: 0x8, addend: 0x0, symName: __ZNSt3__19make_pairB8ue170006IPKcS2_EENS_4pairINS_18__unwrap_ref_decayIT_E4typeENS4_IT0_E4typeEEEOS5_OS8_, symObjAddr: 0x2BFC, symBinAddr: 0x1000057A0, symSize: 0x38 }
  - { offsetInCU: 0x5BA6, offset: 0x5BA6, size: 0x8, addend: 0x0, symName: __ZNSt3__113__unwrap_iterB8ue170006IPKcNS_18__unwrap_iter_implIS2_Lb1EEELi0EEEDTclsrT0_8__unwrapclsr3stdE7declvalIT_EEEES6_, symObjAddr: 0x2C34, symBinAddr: 0x1000057D8, symSize: 0x24 }
  - { offsetInCU: 0x5D11, offset: 0x5D11, size: 0x8, addend: 0x0, symName: __ZNSt3__112__to_addressB8ue170006IKcEEPT_S3_, symObjAddr: 0x2CEC, symBinAddr: 0x100005890, symSize: 0x14 }
  - { offsetInCU: 0x5D46, offset: 0x5D46, size: 0x8, addend: 0x0, symName: __ZNSt3__119__copy_trivial_implB8ue170006IKccEENS_4pairIPT_PT0_EES4_S4_S6_, symObjAddr: 0x2D00, symBinAddr: 0x1000058A4, symSize: 0x78 }
  - { offsetInCU: 0x5DAE, offset: 0x5DAE, size: 0x8, addend: 0x0, symName: __ZNSt3__119__constexpr_memmoveB8ue170006IcKcLi0EEEPT_S3_PT0_NS_15__element_countE, symObjAddr: 0x2D78, symBinAddr: 0x10000591C, symSize: 0x64 }
  - { offsetInCU: 0x5E1C, offset: 0x5E1C, size: 0x8, addend: 0x0, symName: __ZNSt3__19make_pairB8ue170006IRPKcPcEENS_4pairINS_18__unwrap_ref_decayIT_E4typeENS6_IT0_E4typeEEEOS7_OSA_, symObjAddr: 0x2DDC, symBinAddr: 0x100005980, symSize: 0x38 }
  - { offsetInCU: 0x5EBE, offset: 0x5EBE, size: 0x8, addend: 0x0, symName: __ZNSt3__113__rewrap_iterB8ue170006IPKcS2_NS_18__unwrap_iter_implIS2_Lb1EEEEET_S5_T0_, symObjAddr: 0x2F18, symBinAddr: 0x100005ABC, symSize: 0x3C }
  - { offsetInCU: 0x5F46, offset: 0x5F46, size: 0x8, addend: 0x0, symName: __ZNSt3__16fill_nB8ue170006IPcmcEET_S2_T0_RKT1_, symObjAddr: 0x309C, symBinAddr: 0x100005C40, symSize: 0x44 }
  - { offsetInCU: 0x5FA9, offset: 0x5FA9, size: 0x8, addend: 0x0, symName: __ZNSt3__18__fill_nB8ue170006IPcmcEET_S2_T0_RKT1_, symObjAddr: 0x30E0, symBinAddr: 0x100005C84, symSize: 0x64 }
  - { offsetInCU: 0x600C, offset: 0x600C, size: 0x8, addend: 0x0, symName: __ZNSt3__121__convert_to_integralB8ue170006Em, symObjAddr: 0x3144, symBinAddr: 0x100005CE8, symSize: 0x14 }
  - { offsetInCU: 0x6038, offset: 0x6038, size: 0x8, addend: 0x0, symName: __ZNSt3__13maxB8ue170006ImEERKT_S3_S3_, symObjAddr: 0x38B8, symBinAddr: 0x10000645C, symSize: 0x2C }
  - { offsetInCU: 0x607B, offset: 0x607B, size: 0x8, addend: 0x0, symName: __ZNSt3__13minB8ue170006ImEERKT_S3_S3_, symObjAddr: 0x38E4, symBinAddr: 0x100006488, symSize: 0x2C }
  - { offsetInCU: 0x62BF, offset: 0x62BF, size: 0x8, addend: 0x0, symName: __ZNSt3__13minB8ue170006ImNS_6__lessIvvEEEERKT_S5_S5_T0_, symObjAddr: 0x3970, symBinAddr: 0x100006514, symSize: 0x54 }
  - { offsetInCU: 0x635E, offset: 0x635E, size: 0x8, addend: 0x0, symName: __ZNSt3__13maxB8ue170006ImNS_6__lessIvvEEEERKT_S5_S5_T0_, symObjAddr: 0x3A50, symBinAddr: 0x1000065F4, symSize: 0x54 }
  - { offsetInCU: 0x63B8, offset: 0x63B8, size: 0x8, addend: 0x0, symName: __ZNSt3__119__allocate_at_leastB8ue170006INS_9allocatorI11knight_dataEEEENS_19__allocation_resultINS_16allocator_traitsIT_E7pointerEEERS6_m, symObjAddr: 0x3BC0, symBinAddr: 0x100006764, symSize: 0x40 }
  - { offsetInCU: 0x63FB, offset: 0x63FB, size: 0x8, addend: 0x0, symName: __ZNSt3__142__uninitialized_allocator_move_if_noexceptB8ue170006INS_9allocatorI11knight_dataEENS_16reverse_iteratorIPS2_EES6_S6_EET2_RT_T0_T1_S7_, symObjAddr: 0x3D78, symBinAddr: 0x10000691C, symSize: 0x12C }
  - { offsetInCU: 0x649B, offset: 0x649B, size: 0x8, addend: 0x0, symName: __ZNSt3__14swapB8ue170006IP11knight_dataEENS_9enable_ifIXaasr21is_move_constructibleIT_EE5valuesr18is_move_assignableIS4_EE5valueEvE4typeERS4_S7_, symObjAddr: 0x3EF0, symBinAddr: 0x100006A94, symSize: 0x3C }
  - { offsetInCU: 0x64EC, offset: 0x64EC, size: 0x8, addend: 0x0, symName: __ZNSt3__122__make_exception_guardB8ue170006INS_29_AllocatorDestroyRangeReverseINS_9allocatorI11knight_dataEENS_16reverse_iteratorIPS3_EEEEEENS_28__exception_guard_exceptionsIT_EESA_, symObjAddr: 0x3FF4, symBinAddr: 0x100006B98, symSize: 0x4C }
  - { offsetInCU: 0x6522, offset: 0x6522, size: 0x8, addend: 0x0, symName: __ZNSt3__1neB8ue170006IP11knight_dataS2_EEbRKNS_16reverse_iteratorIT_EERKNS3_IT0_EE, symObjAddr: 0x4084, symBinAddr: 0x100006C28, symSize: 0x48 }
  - { offsetInCU: 0x656E, offset: 0x656E, size: 0x8, addend: 0x0, symName: __ZNSt3__112__to_addressB8ue170006INS_16reverse_iteratorIP11knight_dataEEvEEu7__decayIDTclsr19__to_address_helperIT_EE6__callclsr3stdE7declvalIRKS5_EEEEES7_, symObjAddr: 0x4100, symBinAddr: 0x100006CA4, symSize: 0x24 }
  - { offsetInCU: 0x65CD, offset: 0x65CD, size: 0x8, addend: 0x0, symName: __ZNSt3__119__allocator_destroyB8ue170006INS_9allocatorI11knight_dataEENS_16reverse_iteratorINS4_IPS2_EEEES7_EEvRT_T0_T1_, symObjAddr: 0x447C, symBinAddr: 0x100007020, symSize: 0x70 }
  - { offsetInCU: 0x6632, offset: 0x6632, size: 0x8, addend: 0x0, symName: __ZNSt3__1neB8ue170006INS_16reverse_iteratorIP11knight_dataEES4_EEbRKNS1_IT_EERKNS1_IT0_EE, symObjAddr: 0x4528, symBinAddr: 0x1000070CC, symSize: 0x60 }
  - { offsetInCU: 0x667E, offset: 0x667E, size: 0x8, addend: 0x0, symName: __ZNSt3__112__to_addressB8ue170006INS_16reverse_iteratorINS1_IP11knight_dataEEEEvEEu7__decayIDTclsr19__to_address_helperIT_EE6__callclsr3stdE7declvalIRKS6_EEEEES8_, symObjAddr: 0x4588, symBinAddr: 0x10000712C, symSize: 0x24 }
  - { offsetInCU: 0x6A36, offset: 0x6A36, size: 0x8, addend: 0x0, symName: __ZSt28__throw_bad_array_new_lengthB8ue170006v, symObjAddr: 0x2850, symBinAddr: 0x1000053F4, symSize: 0x34 }
  - { offsetInCU: 0x6E9B, offset: 0x6E9B, size: 0x8, addend: 0x0, symName: __ZNSt3__16vectorI11knight_dataNS_9allocatorIS1_EEE26__swap_out_circular_bufferERNS_14__split_bufferIS1_RS3_EE, symObjAddr: 0x3700, symBinAddr: 0x1000062A4, symSize: 0x110 }
  - { offsetInCU: 0x92DF, offset: 0x92DF, size: 0x8, addend: 0x0, symName: __Z11read_stringNSt3__112basic_stringIcNS_11char_traitsIcEENS_9allocatorIcEEEE, symObjAddr: 0x0, symBinAddr: 0x100002BA4, symSize: 0x74 }
  - { offsetInCU: 0x930C, offset: 0x930C, size: 0x8, addend: 0x0, symName: __Z12read_integerNSt3__112basic_stringIcNS_11char_traitsIcEENS_9allocatorIcEEEE, symObjAddr: 0x74, symBinAddr: 0x100002C18, symSize: 0xA4 }
  - { offsetInCU: 0x9339, offset: 0x9339, size: 0x8, addend: 0x0, symName: __Z11read_knightv, symObjAddr: 0x118, symBinAddr: 0x100002CBC, symSize: 0x1FC }
  - { offsetInCU: 0x936B, offset: 0x936B, size: 0x8, addend: 0x0, symName: __ZN11knight_dataC1Ev, symObjAddr: 0x314, symBinAddr: 0x100002EB8, symSize: 0x2C }
  - { offsetInCU: 0x939A, offset: 0x939A, size: 0x8, addend: 0x0, symName: __ZNSt3__112basic_stringIcNS_11char_traitsIcEENS_9allocatorIcEEEC1B8ue170006ILi0EEEPKc, symObjAddr: 0x340, symBinAddr: 0x100002EE4, symSize: 0x34 }
  - { offsetInCU: 0x93D7, offset: 0x93D7, size: 0x8, addend: 0x0, symName: __ZNSt3__112basic_stringIcNS_11char_traitsIcEENS_9allocatorIcEEEaSB8ue170006EOS5_, symObjAddr: 0x374, symBinAddr: 0x100002F18, symSize: 0x34 }
  - { offsetInCU: 0x940A, offset: 0x940A, size: 0x8, addend: 0x0, symName: __ZN11knight_dataD1Ev, symObjAddr: 0x3A8, symBinAddr: 0x100002F4C, symSize: 0x2C }
  - { offsetInCU: 0x9434, offset: 0x9434, size: 0x8, addend: 0x0, symName: __Z12write_knightRK11knight_data, symObjAddr: 0x3D4, symBinAddr: 0x100002F78, symSize: 0x164 }
  - { offsetInCU: 0x945C, offset: 0x945C, size: 0x8, addend: 0x0, symName: __Z25read_knight_update_optionv, symObjAddr: 0x694, symBinAddr: 0x100003238, symSize: 0x1B0 }
  - { offsetInCU: 0x9488, offset: 0x9488, size: 0x8, addend: 0x0, symName: __Z13update_knightR11knight_data, symObjAddr: 0x844, symBinAddr: 0x1000033E8, symSize: 0x298 }
  - { offsetInCU: 0x94BE, offset: 0x94BE, size: 0x8, addend: 0x0, symName: __Z10add_knightR12kingdom_data, symObjAddr: 0xAF0, symBinAddr: 0x100003694, symSize: 0x94 }
  - { offsetInCU: 0x94FA, offset: 0x94FA, size: 0x8, addend: 0x0, symName: __ZN11knight_dataaSEOS_, symObjAddr: 0xB84, symBinAddr: 0x100003728, symSize: 0x68 }
  - { offsetInCU: 0x9528, offset: 0x9528, size: 0x8, addend: 0x0, symName: __ZNSt3__16vectorI11knight_dataNS_9allocatorIS1_EEE9push_backB8ue170006ERKS1_, symObjAddr: 0xBEC, symBinAddr: 0x100003790, symSize: 0x6C }
  - { offsetInCU: 0x955D, offset: 0x955D, size: 0x8, addend: 0x0, symName: __Z13write_kingdomRK12kingdom_data, symObjAddr: 0xC58, symBinAddr: 0x1000037FC, symSize: 0x178 }
  - { offsetInCU: 0x95A3, offset: 0x95A3, size: 0x8, addend: 0x0, symName: __ZNKSt3__16vectorI11knight_dataNS_9allocatorIS1_EEE4sizeB8ue170006Ev, symObjAddr: 0xDD0, symBinAddr: 0x100003974, symSize: 0x28 }
  - { offsetInCU: 0x95C7, offset: 0x95C7, size: 0x8, addend: 0x0, symName: __ZNKSt3__16vectorI11knight_dataNS_9allocatorIS1_EEEixB8ue170006Em, symObjAddr: 0xDF8, symBinAddr: 0x10000399C, symSize: 0x2C }
  - { offsetInCU: 0x95FC, offset: 0x95FC, size: 0x8, addend: 0x0, symName: __Z13delete_knightR12kingdom_datai, symObjAddr: 0xE24, symBinAddr: 0x1000039C8, symSize: 0xAC }
  - { offsetInCU: 0x964F, offset: 0x964F, size: 0x8, addend: 0x0, symName: __ZNSt3__16vectorI11knight_dataNS_9allocatorIS1_EEEixB8ue170006Em, symObjAddr: 0xED0, symBinAddr: 0x100003A74, symSize: 0x2C }
  - { offsetInCU: 0x9684, offset: 0x9684, size: 0x8, addend: 0x0, symName: __ZN11knight_dataaSERKS_, symObjAddr: 0xEFC, symBinAddr: 0x100003AA0, symSize: 0x68 }
  - { offsetInCU: 0x96B2, offset: 0x96B2, size: 0x8, addend: 0x0, symName: __ZNSt3__16vectorI11knight_dataNS_9allocatorIS1_EEE8pop_backEv, symObjAddr: 0xF64, symBinAddr: 0x100003B08, symSize: 0x2C }
  - { offsetInCU: 0x96D8, offset: 0x96D8, size: 0x8, addend: 0x0, symName: __Z12read_kingdomv, symObjAddr: 0xF90, symBinAddr: 0x100003B34, symSize: 0xE4 }
  - { offsetInCU: 0x9742, offset: 0x9742, size: 0x8, addend: 0x0, symName: __ZN12kingdom_dataC1Ev, symObjAddr: 0x1074, symBinAddr: 0x100003C18, symSize: 0x2C }
  - { offsetInCU: 0x976C, offset: 0x976C, size: 0x8, addend: 0x0, symName: __ZN12kingdom_dataD1Ev, symObjAddr: 0x10A0, symBinAddr: 0x100003C44, symSize: 0x2C }
  - { offsetInCU: 0x9797, offset: 0x9797, size: 0x8, addend: 0x0, symName: _main, symObjAddr: 0x10CC, symBinAddr: 0x100003C70, symSize: 0xE8 }
  - { offsetInCU: 0x97BF, offset: 0x97BF, size: 0x8, addend: 0x0, symName: __ZN11knight_dataC2Ev, symObjAddr: 0x11B4, symBinAddr: 0x100003D58, symSize: 0x44 }
  - { offsetInCU: 0x97E9, offset: 0x97E9, size: 0x8, addend: 0x0, symName: __ZNSt3__112basic_stringIcNS_11char_traitsIcEENS_9allocatorIcEEEC1B8ue170006Ev, symObjAddr: 0x11F8, symBinAddr: 0x100003D9C, symSize: 0x2C }
  - { offsetInCU: 0x9811, offset: 0x9811, size: 0x8, addend: 0x0, symName: __ZNSt3__112basic_stringIcNS_11char_traitsIcEENS_9allocatorIcEEEC2B8ue170006Ev, symObjAddr: 0x1224, symBinAddr: 0x100003DC8, symSize: 0x48 }
  - { offsetInCU: 0x983E, offset: 0x983E, size: 0x8, addend: 0x0, symName: __ZNSt3__117__compressed_pairINS_12basic_stringIcNS_11char_traitsIcEENS_9allocatorIcEEE5__repES5_EC1B8ue170006INS_18__default_init_tagESA_EEOT_OT0_, symObjAddr: 0x126C, symBinAddr: 0x100003E10, symSize: 0x3C }
  - { offsetInCU: 0x9894, offset: 0x9894, size: 0x8, addend: 0x0, symName: __ZNSt3__112basic_stringIcNS_11char_traitsIcEENS_9allocatorIcEEE14__default_initB8ue170006Ev, symObjAddr: 0x12B4, symBinAddr: 0x100003E58, symSize: 0x40 }
  - { offsetInCU: 0x98B8, offset: 0x98B8, size: 0x8, addend: 0x0, symName: __ZNSt3__117__compressed_pairINS_12basic_stringIcNS_11char_traitsIcEENS_9allocatorIcEEE5__repES5_EC2B8ue170006INS_18__default_init_tagESA_EEOT_OT0_, symObjAddr: 0x12F4, symBinAddr: 0x100003E98, symSize: 0x3C }
  - { offsetInCU: 0x990F, offset: 0x990F, size: 0x8, addend: 0x0, symName: __ZNSt3__122__compressed_pair_elemINS_12basic_stringIcNS_11char_traitsIcEENS_9allocatorIcEEE5__repELi0ELb0EEC2B8ue170006ENS_18__default_init_tagE, symObjAddr: 0x1330, symBinAddr: 0x100003ED4, symSize: 0x14 }
  - { offsetInCU: 0x9942, offset: 0x9942, size: 0x8, addend: 0x0, symName: __ZNSt3__122__compressed_pair_elemINS_9allocatorIcEELi1ELb1EEC2B8ue170006ENS_18__default_init_tagE, symObjAddr: 0x1344, symBinAddr: 0x100003EE8, symSize: 0x2C }
  - { offsetInCU: 0x9975, offset: 0x9975, size: 0x8, addend: 0x0, symName: __ZNSt3__19allocatorIcEC2B8ue170006Ev, symObjAddr: 0x1370, symBinAddr: 0x100003F14, symSize: 0x2C }
  - { offsetInCU: 0x999E, offset: 0x999E, size: 0x8, addend: 0x0, symName: __ZNSt3__116__non_trivial_ifILb1ENS_9allocatorIcEEEC2B8ue170006Ev, symObjAddr: 0x139C, symBinAddr: 0x100003F40, symSize: 0x14 }
  - { offsetInCU: 0x99C6, offset: 0x99C6, size: 0x8, addend: 0x0, symName: __ZNSt3__117__compressed_pairINS_12basic_stringIcNS_11char_traitsIcEENS_9allocatorIcEEE5__repES5_E5firstB8ue170006Ev, symObjAddr: 0x13B0, symBinAddr: 0x100003F54, symSize: 0x24 }
  - { offsetInCU: 0x99EB, offset: 0x99EB, size: 0x8, addend: 0x0, symName: __ZNSt3__122__compressed_pair_elemINS_12basic_stringIcNS_11char_traitsIcEENS_9allocatorIcEEE5__repELi0ELb0EE5__getB8ue170006Ev, symObjAddr: 0x13D4, symBinAddr: 0x100003F78, symSize: 0x14 }
  - { offsetInCU: 0x9A0E, offset: 0x9A0E, size: 0x8, addend: 0x0, symName: __ZN11knight_dataD2Ev, symObjAddr: 0x13E8, symBinAddr: 0x100003F8C, symSize: 0x44 }
  - { offsetInCU: 0x9A38, offset: 0x9A38, size: 0x8, addend: 0x0, symName: __ZN12kingdom_dataC2Ev, symObjAddr: 0x142C, symBinAddr: 0x100003FD0, symSize: 0x38 }
  - { offsetInCU: 0x9A62, offset: 0x9A62, size: 0x8, addend: 0x0, symName: __ZNSt3__16vectorI11knight_dataNS_9allocatorIS1_EEEC1B8ue170006Ev, symObjAddr: 0x1464, symBinAddr: 0x100004008, symSize: 0x2C }
  - { offsetInCU: 0x9A8A, offset: 0x9A8A, size: 0x8, addend: 0x0, symName: __ZNSt3__16vectorI11knight_dataNS_9allocatorIS1_EEEC2B8ue170006Ev, symObjAddr: 0x1490, symBinAddr: 0x100004034, symSize: 0x4C }
  - { offsetInCU: 0x9AB7, offset: 0x9AB7, size: 0x8, addend: 0x0, symName: __ZNSt3__117__compressed_pairIP11knight_dataNS_9allocatorIS1_EEEC1B8ue170006IDnNS_18__default_init_tagEEEOT_OT0_, symObjAddr: 0x14DC, symBinAddr: 0x100004080, symSize: 0x3C }
  - { offsetInCU: 0x9B0D, offset: 0x9B0D, size: 0x8, addend: 0x0, symName: __ZNSt3__117__compressed_pairIP11knight_dataNS_9allocatorIS1_EEEC2B8ue170006IDnNS_18__default_init_tagEEEOT_OT0_, symObjAddr: 0x1518, symBinAddr: 0x1000040BC, symSize: 0x40 }
  - { offsetInCU: 0x9B64, offset: 0x9B64, size: 0x8, addend: 0x0, symName: __ZNSt3__122__compressed_pair_elemIP11knight_dataLi0ELb0EEC2B8ue170006IDnvEEOT_, symObjAddr: 0x1558, symBinAddr: 0x1000040FC, symSize: 0x1C }
  - { offsetInCU: 0x9BA4, offset: 0x9BA4, size: 0x8, addend: 0x0, symName: __ZNSt3__122__compressed_pair_elemINS_9allocatorI11knight_dataEELi1ELb1EEC2B8ue170006ENS_18__default_init_tagE, symObjAddr: 0x1574, symBinAddr: 0x100004118, symSize: 0x2C }
  - { offsetInCU: 0x9BD7, offset: 0x9BD7, size: 0x8, addend: 0x0, symName: __ZNSt3__19allocatorI11knight_dataEC2B8ue170006Ev, symObjAddr: 0x15A0, symBinAddr: 0x100004144, symSize: 0x2C }
  - { offsetInCU: 0x9C00, offset: 0x9C00, size: 0x8, addend: 0x0, symName: __ZNSt3__116__non_trivial_ifILb1ENS_9allocatorI11knight_dataEEEC2B8ue170006Ev, symObjAddr: 0x15CC, symBinAddr: 0x100004170, symSize: 0x14 }
  - { offsetInCU: 0x9C28, offset: 0x9C28, size: 0x8, addend: 0x0, symName: __ZN12kingdom_dataD2Ev, symObjAddr: 0x15E0, symBinAddr: 0x100004184, symSize: 0x38 }
  - { offsetInCU: 0x9C52, offset: 0x9C52, size: 0x8, addend: 0x0, symName: __ZNSt3__16vectorI11knight_dataNS_9allocatorIS1_EEED1B8ue170006Ev, symObjAddr: 0x1618, symBinAddr: 0x1000041BC, symSize: 0x2C }
  - { offsetInCU: 0x9C7A, offset: 0x9C7A, size: 0x8, addend: 0x0, symName: __ZNSt3__16vectorI11knight_dataNS_9allocatorIS1_EEED2B8ue170006Ev, symObjAddr: 0x1644, symBinAddr: 0x1000041E8, symSize: 0x44 }
  - { offsetInCU: 0x9CA2, offset: 0x9CA2, size: 0x8, addend: 0x0, symName: __ZNSt3__16vectorI11knight_dataNS_9allocatorIS1_EEE16__destroy_vectorC1B8ue170006ERS4_, symObjAddr: 0x1688, symBinAddr: 0x10000422C, symSize: 0x34 }
  - { offsetInCU: 0x9CD9, offset: 0x9CD9, size: 0x8, addend: 0x0, symName: __ZNSt3__16vectorI11knight_dataNS_9allocatorIS1_EEE16__destroy_vectorclB8ue170006Ev, symObjAddr: 0x16BC, symBinAddr: 0x100004260, symSize: 0x90 }
  - { offsetInCU: 0x9CFE, offset: 0x9CFE, size: 0x8, addend: 0x0, symName: __ZNSt3__16vectorI11knight_dataNS_9allocatorIS1_EEE16__destroy_vectorC2B8ue170006ERS4_, symObjAddr: 0x174C, symBinAddr: 0x1000042F0, symSize: 0x20 }
  - { offsetInCU: 0x9D35, offset: 0x9D35, size: 0x8, addend: 0x0, symName: __ZNSt3__16vectorI11knight_dataNS_9allocatorIS1_EEE7__clearB8ue170006Ev, symObjAddr: 0x176C, symBinAddr: 0x100004310, symSize: 0x28 }
  - { offsetInCU: 0x9D59, offset: 0x9D59, size: 0x8, addend: 0x0, symName: __ZNKSt3__16vectorI11knight_dataNS_9allocatorIS1_EEE17__annotate_deleteB8ue170006Ev, symObjAddr: 0x1794, symBinAddr: 0x100004338, symSize: 0xD4 }
  - { offsetInCU: 0x9D7E, offset: 0x9D7E, size: 0x8, addend: 0x0, symName: __ZNSt3__116allocator_traitsINS_9allocatorI11knight_dataEEE10deallocateB8ue170006ERS3_PS2_m, symObjAddr: 0x1868, symBinAddr: 0x10000440C, symSize: 0x34 }
  - { offsetInCU: 0x9DBF, offset: 0x9DBF, size: 0x8, addend: 0x0, symName: __ZNSt3__16vectorI11knight_dataNS_9allocatorIS1_EEE7__allocB8ue170006Ev, symObjAddr: 0x189C, symBinAddr: 0x100004440, symSize: 0x28 }
  - { offsetInCU: 0x9DE3, offset: 0x9DE3, size: 0x8, addend: 0x0, symName: __ZNKSt3__16vectorI11knight_dataNS_9allocatorIS1_EEE8capacityB8ue170006Ev, symObjAddr: 0x18C4, symBinAddr: 0x100004468, symSize: 0x40 }
  - { offsetInCU: 0x9E07, offset: 0x9E07, size: 0x8, addend: 0x0, symName: __ZNSt3__16vectorI11knight_dataNS_9allocatorIS1_EEE22__base_destruct_at_endB8ue170006EPS1_, symObjAddr: 0x1904, symBinAddr: 0x1000044A8, symSize: 0x8C }
  - { offsetInCU: 0x9E4A, offset: 0x9E4A, size: 0x8, addend: 0x0, symName: __ZNSt3__116allocator_traitsINS_9allocatorI11knight_dataEEE7destroyB8ue170006IS2_vEEvRS3_PT_, symObjAddr: 0x1990, symBinAddr: 0x100004534, symSize: 0x2C }
  - { offsetInCU: 0x9E86, offset: 0x9E86, size: 0x8, addend: 0x0, symName: __ZNSt3__19allocatorI11knight_dataE7destroyB8ue170006EPS1_, symObjAddr: 0x19D0, symBinAddr: 0x100004574, symSize: 0x28 }
  - { offsetInCU: 0x9EB9, offset: 0x9EB9, size: 0x8, addend: 0x0, symName: __ZNKSt3__16vectorI11knight_dataNS_9allocatorIS1_EEE31__annotate_contiguous_containerB8ue170006EPKvS6_S6_S6_, symObjAddr: 0x19F8, symBinAddr: 0x10000459C, symSize: 0x20 }
  - { offsetInCU: 0x9F0C, offset: 0x9F0C, size: 0x8, addend: 0x0, symName: __ZNKSt3__16vectorI11knight_dataNS_9allocatorIS1_EEE4dataB8ue170006Ev, symObjAddr: 0x1A18, symBinAddr: 0x1000045BC, symSize: 0x28 }
  - { offsetInCU: 0x9F30, offset: 0x9F30, size: 0x8, addend: 0x0, symName: __ZNSt3__19allocatorI11knight_dataE10deallocateB8ue170006EPS1_m, symObjAddr: 0x1A40, symBinAddr: 0x1000045E4, symSize: 0x44 }
  - { offsetInCU: 0x9F70, offset: 0x9F70, size: 0x8, addend: 0x0, symName: __ZNSt3__117__compressed_pairIP11knight_dataNS_9allocatorIS1_EEE6secondB8ue170006Ev, symObjAddr: 0x1B00, symBinAddr: 0x1000046A4, symSize: 0x24 }
  - { offsetInCU: 0x9F95, offset: 0x9F95, size: 0x8, addend: 0x0, symName: __ZNSt3__122__compressed_pair_elemINS_9allocatorI11knight_dataEELi1ELb1EE5__getB8ue170006Ev, symObjAddr: 0x1B24, symBinAddr: 0x1000046C8, symSize: 0x14 }
  - { offsetInCU: 0x9FB8, offset: 0x9FB8, size: 0x8, addend: 0x0, symName: __ZNKSt3__16vectorI11knight_dataNS_9allocatorIS1_EEE9__end_capB8ue170006Ev, symObjAddr: 0x1B38, symBinAddr: 0x1000046DC, symSize: 0x28 }
  - { offsetInCU: 0x9FDC, offset: 0x9FDC, size: 0x8, addend: 0x0, symName: __ZNKSt3__117__compressed_pairIP11knight_dataNS_9allocatorIS1_EEE5firstB8ue170006Ev, symObjAddr: 0x1B60, symBinAddr: 0x100004704, symSize: 0x24 }
  - { offsetInCU: 0xA001, offset: 0xA001, size: 0x8, addend: 0x0, symName: __ZNKSt3__122__compressed_pair_elemIP11knight_dataLi0ELb0EE5__getB8ue170006Ev, symObjAddr: 0x1B84, symBinAddr: 0x100004728, symSize: 0x14 }
  - { offsetInCU: 0xA024, offset: 0xA024, size: 0x8, addend: 0x0, symName: __ZNSt3__112basic_stringIcNS_11char_traitsIcEENS_9allocatorIcEEEC2B8ue170006ILi0EEEPKc, symObjAddr: 0x1B98, symBinAddr: 0x10000473C, symSize: 0x58 }
  - { offsetInCU: 0xA062, offset: 0xA062, size: 0x8, addend: 0x0, symName: __ZNSt3__111char_traitsIcE6lengthB8ue170006EPKc, symObjAddr: 0x1BF0, symBinAddr: 0x100004794, symSize: 0x34 }
  - { offsetInCU: 0xA084, offset: 0xA084, size: 0x8, addend: 0x0, symName: __ZNSt3__112basic_stringIcNS_11char_traitsIcEENS_9allocatorIcEEE13__move_assignB8ue170006ERS5_NS_17integral_constantIbLb1EEE, symObjAddr: 0x1C48, symBinAddr: 0x1000047EC, symSize: 0xC8 }
  - { offsetInCU: 0xA0C5, offset: 0xA0C5, size: 0x8, addend: 0x0, symName: __ZNKSt3__112basic_stringIcNS_11char_traitsIcEENS_9allocatorIcEEE9__is_longB8ue170006Ev, symObjAddr: 0x1D10, symBinAddr: 0x1000048B4, symSize: 0x38 }
  - { offsetInCU: 0xA0EA, offset: 0xA0EA, size: 0x8, addend: 0x0, symName: __ZNSt3__116allocator_traitsINS_9allocatorIcEEE10deallocateB8ue170006ERS2_Pcm, symObjAddr: 0x1D48, symBinAddr: 0x1000048EC, symSize: 0x34 }
  - { offsetInCU: 0xA12B, offset: 0xA12B, size: 0x8, addend: 0x0, symName: __ZNSt3__112basic_stringIcNS_11char_traitsIcEENS_9allocatorIcEEE7__allocB8ue170006Ev, symObjAddr: 0x1D7C, symBinAddr: 0x100004920, symSize: 0x24 }
  - { offsetInCU: 0xA14F, offset: 0xA14F, size: 0x8, addend: 0x0, symName: __ZNSt3__112basic_stringIcNS_11char_traitsIcEENS_9allocatorIcEEE18__get_long_pointerB8ue170006Ev, symObjAddr: 0x1DA0, symBinAddr: 0x100004944, symSize: 0x28 }
  - { offsetInCU: 0xA173, offset: 0xA173, size: 0x8, addend: 0x0, symName: __ZNKSt3__112basic_stringIcNS_11char_traitsIcEENS_9allocatorIcEEE14__get_long_capB8ue170006Ev, symObjAddr: 0x1DC8, symBinAddr: 0x10000496C, symSize: 0x30 }
  - { offsetInCU: 0xA197, offset: 0xA197, size: 0x8, addend: 0x0, symName: __ZNSt3__112basic_stringIcNS_11char_traitsIcEENS_9allocatorIcEEE19__move_assign_allocB8ue170006ERS5_, symObjAddr: 0x1DF8, symBinAddr: 0x10000499C, symSize: 0x2C }
  - { offsetInCU: 0xA1CA, offset: 0xA1CA, size: 0x8, addend: 0x0, symName: __ZNSt3__112basic_stringIcNS_11char_traitsIcEENS_9allocatorIcEEE16__set_short_sizeB8ue170006Em, symObjAddr: 0x1E24, symBinAddr: 0x1000049C8, symSize: 0x78 }
  - { offsetInCU: 0xA1FE, offset: 0xA1FE, size: 0x8, addend: 0x0, symName: __ZNSt3__111char_traitsIcE6assignB8ue170006ERcRKc, symObjAddr: 0x1E9C, symBinAddr: 0x100004A40, symSize: 0x24 }
  - { offsetInCU: 0xA22E, offset: 0xA22E, size: 0x8, addend: 0x0, symName: __ZNSt3__112basic_stringIcNS_11char_traitsIcEENS_9allocatorIcEEE19__get_short_pointerB8ue170006Ev, symObjAddr: 0x1EC0, symBinAddr: 0x100004A64, symSize: 0x28 }
  - { offsetInCU: 0xA252, offset: 0xA252, size: 0x8, addend: 0x0, symName: __ZNKSt3__117__compressed_pairINS_12basic_stringIcNS_11char_traitsIcEENS_9allocatorIcEEE5__repES5_E5firstB8ue170006Ev, symObjAddr: 0x1EE8, symBinAddr: 0x100004A8C, symSize: 0x24 }
  - { offsetInCU: 0xA277, offset: 0xA277, size: 0x8, addend: 0x0, symName: __ZNKSt3__122__compressed_pair_elemINS_12basic_stringIcNS_11char_traitsIcEENS_9allocatorIcEEE5__repELi0ELb0EE5__getB8ue170006Ev, symObjAddr: 0x1F0C, symBinAddr: 0x100004AB0, symSize: 0x14 }
  - { offsetInCU: 0xA29A, offset: 0xA29A, size: 0x8, addend: 0x0, symName: __ZNSt3__19allocatorIcE10deallocateB8ue170006EPcm, symObjAddr: 0x1F20, symBinAddr: 0x100004AC4, symSize: 0x40 }
  - { offsetInCU: 0xA2DA, offset: 0xA2DA, size: 0x8, addend: 0x0, symName: __ZNSt3__117__compressed_pairINS_12basic_stringIcNS_11char_traitsIcEENS_9allocatorIcEEE5__repES5_E6secondB8ue170006Ev, symObjAddr: 0x1F60, symBinAddr: 0x100004B04, symSize: 0x24 }
  - { offsetInCU: 0xA2FF, offset: 0xA2FF, size: 0x8, addend: 0x0, symName: __ZNSt3__122__compressed_pair_elemINS_9allocatorIcEELi1ELb1EE5__getB8ue170006Ev, symObjAddr: 0x1F84, symBinAddr: 0x100004B28, symSize: 0x14 }
  - { offsetInCU: 0xA322, offset: 0xA322, size: 0x8, addend: 0x0, symName: __ZNSt3__112basic_stringIcNS_11char_traitsIcEENS_9allocatorIcEEE19__move_assign_allocB8ue170006ERS5_NS_17integral_constantIbLb1EEE, symObjAddr: 0x1F98, symBinAddr: 0x100004B3C, symSize: 0x38 }
  - { offsetInCU: 0xA362, offset: 0xA362, size: 0x8, addend: 0x0, symName: __ZNSt3__114pointer_traitsIPcE10pointer_toB8ue170006ERc, symObjAddr: 0x1FD0, symBinAddr: 0x100004B74, symSize: 0x14 }
  - { offsetInCU: 0xA384, offset: 0xA384, size: 0x8, addend: 0x0, symName: __ZNKSt3__112basic_stringIcNS_11char_traitsIcEENS_9allocatorIcEEE4sizeB8ue170006Ev, symObjAddr: 0x1FE4, symBinAddr: 0x100004B88, symSize: 0x54 }
  - { offsetInCU: 0xA3B3, offset: 0xA3B3, size: 0x8, addend: 0x0, symName: __ZNSt3__116allocator_traitsINS_9allocatorIcEEE37select_on_container_copy_constructionB8ue170006IS2_vvEES2_RKS2_, symObjAddr: 0x2038, symBinAddr: 0x100004BDC, symSize: 0x10 }
  - { offsetInCU: 0xA3E1, offset: 0xA3E1, size: 0x8, addend: 0x0, symName: __ZNKSt3__112basic_stringIcNS_11char_traitsIcEENS_9allocatorIcEEE13get_allocatorB8ue170006Ev, symObjAddr: 0x2048, symBinAddr: 0x100004BEC, symSize: 0x24 }
  - { offsetInCU: 0xA405, offset: 0xA405, size: 0x8, addend: 0x0, symName: __ZNSt3__112basic_stringIcNS_11char_traitsIcEENS_9allocatorIcEEEC1B8ue170006ENS_24__uninitialized_size_tagEmRKS4_, symObjAddr: 0x206C, symBinAddr: 0x100004C10, symSize: 0x3C }
  - { offsetInCU: 0xA457, offset: 0xA457, size: 0x8, addend: 0x0, symName: __ZNSt3__112basic_stringIcNS_11char_traitsIcEENS_9allocatorIcEEE13__get_pointerB8ue170006Ev, symObjAddr: 0x20BC, symBinAddr: 0x100004C60, symSize: 0x54 }
  - { offsetInCU: 0xA47C, offset: 0xA47C, size: 0x8, addend: 0x0, symName: __ZNSt3__111char_traitsIcE4copyB8ue170006EPcPKcm, symObjAddr: 0x2110, symBinAddr: 0x100004CB4, symSize: 0x40 }
  - { offsetInCU: 0xA4BA, offset: 0xA4BA, size: 0x8, addend: 0x0, symName: __ZNKSt3__112basic_stringIcNS_11char_traitsIcEENS_9allocatorIcEEE4dataB8ue170006Ev, symObjAddr: 0x2150, symBinAddr: 0x100004CF4, symSize: 0x28 }
  - { offsetInCU: 0xA4DF, offset: 0xA4DF, size: 0x8, addend: 0x0, symName: __ZNSt3__111char_traitsIcE6assignB8ue170006EPcmc, symObjAddr: 0x2178, symBinAddr: 0x100004D1C, symSize: 0x44 }
  - { offsetInCU: 0xA51D, offset: 0xA51D, size: 0x8, addend: 0x0, symName: __ZNKSt3__112basic_stringIcNS_11char_traitsIcEENS_9allocatorIcEEE15__get_long_sizeB8ue170006Ev, symObjAddr: 0x21BC, symBinAddr: 0x100004D60, symSize: 0x28 }
  - { offsetInCU: 0xA541, offset: 0xA541, size: 0x8, addend: 0x0, symName: __ZNKSt3__112basic_stringIcNS_11char_traitsIcEENS_9allocatorIcEEE16__get_short_sizeB8ue170006Ev, symObjAddr: 0x21E4, symBinAddr: 0x100004D88, symSize: 0x34 }
  - { offsetInCU: 0xA565, offset: 0xA565, size: 0x8, addend: 0x0, symName: __ZNKSt3__112basic_stringIcNS_11char_traitsIcEENS_9allocatorIcEEE7__allocB8ue170006Ev, symObjAddr: 0x2218, symBinAddr: 0x100004DBC, symSize: 0x24 }
  - { offsetInCU: 0xA589, offset: 0xA589, size: 0x8, addend: 0x0, symName: __ZNKSt3__117__compressed_pairINS_12basic_stringIcNS_11char_traitsIcEENS_9allocatorIcEEE5__repES5_E6secondB8ue170006Ev, symObjAddr: 0x223C, symBinAddr: 0x100004DE0, symSize: 0x24 }
  - { offsetInCU: 0xA5AE, offset: 0xA5AE, size: 0x8, addend: 0x0, symName: __ZNKSt3__122__compressed_pair_elemINS_9allocatorIcEELi1ELb1EE5__getB8ue170006Ev, symObjAddr: 0x2260, symBinAddr: 0x100004E04, symSize: 0x14 }
  - { offsetInCU: 0xA5D1, offset: 0xA5D1, size: 0x8, addend: 0x0, symName: __ZNSt3__112basic_stringIcNS_11char_traitsIcEENS_9allocatorIcEEEC2B8ue170006ENS_24__uninitialized_size_tagEmRKS4_, symObjAddr: 0x2274, symBinAddr: 0x100004E18, symSize: 0x110 }
  - { offsetInCU: 0xA64F, offset: 0xA64F, size: 0x8, addend: 0x0, symName: __ZNSt3__117__compressed_pairINS_12basic_stringIcNS_11char_traitsIcEENS_9allocatorIcEEE5__repES5_EC1B8ue170006INS_18__default_init_tagERKS5_EEOT_OT0_, symObjAddr: 0x2384, symBinAddr: 0x100004F28, symSize: 0x3C }
  - { offsetInCU: 0xA6A5, offset: 0xA6A5, size: 0x8, addend: 0x0, symName: __ZNKSt3__112basic_stringIcNS_11char_traitsIcEENS_9allocatorIcEEE8max_sizeB8ue170006Ev, symObjAddr: 0x23C0, symBinAddr: 0x100004F64, symSize: 0xAC }
  - { offsetInCU: 0xA6F5, offset: 0xA6F5, size: 0x8, addend: 0x0, symName: __ZNKSt3__112basic_stringIcNS_11char_traitsIcEENS_9allocatorIcEEE20__throw_length_errorB8ue170006Ev, symObjAddr: 0x246C, symBinAddr: 0x100005010, symSize: 0x1C }
  - { offsetInCU: 0xA71A, offset: 0xA71A, size: 0x8, addend: 0x0, symName: __ZNSt3__112basic_stringIcNS_11char_traitsIcEENS_9allocatorIcEEE13__fits_in_ssoB8ue170006Em, symObjAddr: 0x2488, symBinAddr: 0x10000502C, symSize: 0x20 }
  - { offsetInCU: 0xA73E, offset: 0xA73E, size: 0x8, addend: 0x0, symName: __ZNSt3__112basic_stringIcNS_11char_traitsIcEENS_9allocatorIcEEE11__recommendB8ue170006Em, symObjAddr: 0x24A8, symBinAddr: 0x10000504C, symSize: 0x84 }
  - { offsetInCU: 0xA771, offset: 0xA771, size: 0x8, addend: 0x0, symName: __ZNSt3__116allocator_traitsINS_9allocatorIcEEE8allocateB8ue170006ERS2_m, symObjAddr: 0x252C, symBinAddr: 0x1000050D0, symSize: 0x2C }
  - { offsetInCU: 0xA7A4, offset: 0xA7A4, size: 0x8, addend: 0x0, symName: __ZNSt3__112basic_stringIcNS_11char_traitsIcEENS_9allocatorIcEEE16__begin_lifetimeB8ue170006EPcm, symObjAddr: 0x2558, symBinAddr: 0x1000050FC, symSize: 0x14 }
  - { offsetInCU: 0xA7D6, offset: 0xA7D6, size: 0x8, addend: 0x0, symName: __ZNSt3__112basic_stringIcNS_11char_traitsIcEENS_9allocatorIcEEE14__set_long_capB8ue170006Em, symObjAddr: 0x256C, symBinAddr: 0x100005110, symSize: 0x70 }
  - { offsetInCU: 0xA809, offset: 0xA809, size: 0x8, addend: 0x0, symName: __ZNSt3__112basic_stringIcNS_11char_traitsIcEENS_9allocatorIcEEE18__set_long_pointerB8ue170006EPc, symObjAddr: 0x25DC, symBinAddr: 0x100005180, symSize: 0x38 }
  - { offsetInCU: 0xA83C, offset: 0xA83C, size: 0x8, addend: 0x0, symName: __ZNSt3__112basic_stringIcNS_11char_traitsIcEENS_9allocatorIcEEE15__set_long_sizeB8ue170006Em, symObjAddr: 0x2614, symBinAddr: 0x1000051B8, symSize: 0x38 }
  - { offsetInCU: 0xA86F, offset: 0xA86F, size: 0x8, addend: 0x0, symName: __ZNSt3__117__compressed_pairINS_12basic_stringIcNS_11char_traitsIcEENS_9allocatorIcEEE5__repES5_EC2B8ue170006INS_18__default_init_tagERKS5_EEOT_OT0_, symObjAddr: 0x264C, symBinAddr: 0x1000051F0, symSize: 0x40 }
  - { offsetInCU: 0xA8C6, offset: 0xA8C6, size: 0x8, addend: 0x0, symName: __ZNSt3__122__compressed_pair_elemINS_9allocatorIcEELi1ELb1EEC2B8ue170006IRKS2_vEEOT_, symObjAddr: 0x268C, symBinAddr: 0x100005230, symSize: 0x18 }
  - { offsetInCU: 0xA907, offset: 0xA907, size: 0x8, addend: 0x0, symName: __ZNSt3__116allocator_traitsINS_9allocatorIcEEE8max_sizeB8ue170006IS2_vEEmRKS2_, symObjAddr: 0x26A4, symBinAddr: 0x100005248, symSize: 0x24 }
  - { offsetInCU: 0xA935, offset: 0xA935, size: 0x8, addend: 0x0, symName: __ZNSt3__114numeric_limitsImE3maxB8ue170006Ev, symObjAddr: 0x26C8, symBinAddr: 0x10000526C, symSize: 0x14 }
  - { offsetInCU: 0xA949, offset: 0xA949, size: 0x8, addend: 0x0, symName: __ZNKSt3__19allocatorIcE8max_sizeB8ue170006Ev, symObjAddr: 0x26DC, symBinAddr: 0x100005280, symSize: 0x14 }
  - { offsetInCU: 0xA96D, offset: 0xA96D, size: 0x8, addend: 0x0, symName: __ZNSt3__123__libcpp_numeric_limitsImLb1EE3maxB8ue170006Ev, symObjAddr: 0x26F0, symBinAddr: 0x100005294, symSize: 0x8 }
  - { offsetInCU: 0xA980, offset: 0xA980, size: 0x8, addend: 0x0, symName: __ZNSt12length_errorC1B8ue170006EPKc, symObjAddr: 0x275C, symBinAddr: 0x100005300, symSize: 0x34 }
  - { offsetInCU: 0xA9B6, offset: 0xA9B6, size: 0x8, addend: 0x0, symName: __ZNSt12length_errorC2B8ue170006EPKc, symObjAddr: 0x2790, symBinAddr: 0x100005334, symSize: 0x4C }
  - { offsetInCU: 0xA9ED, offset: 0xA9ED, size: 0x8, addend: 0x0, symName: __ZNSt3__112basic_stringIcNS_11char_traitsIcEENS_9allocatorIcEEE10__align_itB8ue170006ILm16EEEmm, symObjAddr: 0x27DC, symBinAddr: 0x100005380, symSize: 0x1C }
  - { offsetInCU: 0xAA1A, offset: 0xAA1A, size: 0x8, addend: 0x0, symName: __ZNSt3__19allocatorIcE8allocateB8ue170006Em, symObjAddr: 0x27F8, symBinAddr: 0x10000539C, symSize: 0x58 }
  - { offsetInCU: 0xAA6F, offset: 0xAA6F, size: 0x8, addend: 0x0, symName: __ZNKSt3__114__copy_trivialclB8ue170006IKccLi0EEENS_4pairIPT_PT0_EES5_S5_S7_, symObjAddr: 0x2AF0, symBinAddr: 0x100005694, symSize: 0x48 }
  - { offsetInCU: 0xAAF3, offset: 0xAAF3, size: 0x8, addend: 0x0, symName: __ZNSt3__14pairIPKcS2_EC1B8ue170006IS2_S2_LPv0EEEOT_OT0_, symObjAddr: 0x2C58, symBinAddr: 0x1000057FC, symSize: 0x3C }
  - { offsetInCU: 0xAB50, offset: 0xAB50, size: 0x8, addend: 0x0, symName: __ZNSt3__14pairIPKcS2_EC2B8ue170006IS2_S2_LPv0EEEOT_OT0_, symObjAddr: 0x2C94, symBinAddr: 0x100005838, symSize: 0x34 }
  - { offsetInCU: 0xABAD, offset: 0xABAD, size: 0x8, addend: 0x0, symName: __ZNSt3__118__unwrap_iter_implIPKcLb1EE8__unwrapB8ue170006ES2_, symObjAddr: 0x2CC8, symBinAddr: 0x10000586C, symSize: 0x24 }
  - { offsetInCU: 0xABD9, offset: 0xABD9, size: 0x8, addend: 0x0, symName: __ZNSt3__14pairIPKcPcEC1B8ue170006IRS2_S3_LPv0EEEOT_OT0_, symObjAddr: 0x2E14, symBinAddr: 0x1000059B8, symSize: 0x3C }
  - { offsetInCU: 0xAC36, offset: 0xAC36, size: 0x8, addend: 0x0, symName: __ZNSt3__14pairIPKcPcEC2B8ue170006IRS2_S3_LPv0EEEOT_OT0_, symObjAddr: 0x2E50, symBinAddr: 0x1000059F4, symSize: 0x34 }
  - { offsetInCU: 0xAC93, offset: 0xAC93, size: 0x8, addend: 0x0, symName: __ZNSt3__118__unwrap_iter_implIPcLb1EE8__unwrapB8ue170006ES1_, symObjAddr: 0x2E84, symBinAddr: 0x100005A28, symSize: 0x24 }
  - { offsetInCU: 0xACB5, offset: 0xACB5, size: 0x8, addend: 0x0, symName: __ZNSt3__14pairIPKcPcEC1B8ue170006IS2_S3_LPv0EEEOT_OT0_, symObjAddr: 0x2EA8, symBinAddr: 0x100005A4C, symSize: 0x3C }
  - { offsetInCU: 0xAD12, offset: 0xAD12, size: 0x8, addend: 0x0, symName: __ZNSt3__14pairIPKcPcEC2B8ue170006IS2_S3_LPv0EEEOT_OT0_, symObjAddr: 0x2EE4, symBinAddr: 0x100005A88, symSize: 0x34 }
  - { offsetInCU: 0xAD6F, offset: 0xAD6F, size: 0x8, addend: 0x0, symName: __ZNSt3__118__unwrap_iter_implIPKcLb1EE8__rewrapB8ue170006ES2_S2_, symObjAddr: 0x2F54, symBinAddr: 0x100005AF8, symSize: 0x48 }
  - { offsetInCU: 0xADA0, offset: 0xADA0, size: 0x8, addend: 0x0, symName: __ZNSt3__118__unwrap_iter_implIPcLb1EE8__rewrapB8ue170006ES1_S1_, symObjAddr: 0x2F9C, symBinAddr: 0x100005B40, symSize: 0x48 }
  - { offsetInCU: 0xADD0, offset: 0xADD0, size: 0x8, addend: 0x0, symName: __ZNKSt3__112basic_stringIcNS_11char_traitsIcEENS_9allocatorIcEEE13__get_pointerB8ue170006Ev, symObjAddr: 0x2FE4, symBinAddr: 0x100005B88, symSize: 0x54 }
  - { offsetInCU: 0xADF4, offset: 0xADF4, size: 0x8, addend: 0x0, symName: __ZNKSt3__112basic_stringIcNS_11char_traitsIcEENS_9allocatorIcEEE18__get_long_pointerB8ue170006Ev, symObjAddr: 0x3038, symBinAddr: 0x100005BDC, symSize: 0x28 }
  - { offsetInCU: 0xAE18, offset: 0xAE18, size: 0x8, addend: 0x0, symName: __ZNKSt3__112basic_stringIcNS_11char_traitsIcEENS_9allocatorIcEEE19__get_short_pointerB8ue170006Ev, symObjAddr: 0x3060, symBinAddr: 0x100005C04, symSize: 0x28 }
  - { offsetInCU: 0xAE3D, offset: 0xAE3D, size: 0x8, addend: 0x0, symName: __ZNSt3__114pointer_traitsIPKcE10pointer_toB8ue170006ERS1_, symObjAddr: 0x3088, symBinAddr: 0x100005C2C, symSize: 0x14 }
  - { offsetInCU: 0xAE5F, offset: 0xAE5F, size: 0x8, addend: 0x0, symName: __ZNSt3__112basic_stringIcNS_11char_traitsIcEENS_9allocatorIcEEE6appendB8ue170006ERKS5_, symObjAddr: 0x3158, symBinAddr: 0x100005CFC, symSize: 0x4C }
  - { offsetInCU: 0xAE92, offset: 0xAE92, size: 0x8, addend: 0x0, symName: __ZNSt3__112basic_stringIcNS_11char_traitsIcEENS_9allocatorIcEEEC1B8ue170006EOS5_, symObjAddr: 0x31A4, symBinAddr: 0x100005D48, symSize: 0x34 }
  - { offsetInCU: 0xAEC9, offset: 0xAEC9, size: 0x8, addend: 0x0, symName: __ZNSt3__112basic_stringIcNS_11char_traitsIcEENS_9allocatorIcEEEC2B8ue170006EOS5_, symObjAddr: 0x31D8, symBinAddr: 0x100005D7C, symSize: 0x48 }
  - { offsetInCU: 0xAF00, offset: 0xAF00, size: 0x8, addend: 0x0, symName: __ZNSt3__16vectorI11knight_dataNS_9allocatorIS1_EEE9__end_capB8ue170006Ev, symObjAddr: 0x3220, symBinAddr: 0x100005DC4, symSize: 0x28 }
  - { offsetInCU: 0xAF24, offset: 0xAF24, size: 0x8, addend: 0x0, symName: __ZNSt3__16vectorI11knight_dataNS_9allocatorIS1_EEE22__construct_one_at_endB8ue170006IJRKS1_EEEvDpOT_, symObjAddr: 0x3248, symBinAddr: 0x100005DEC, symSize: 0x90 }
  - { offsetInCU: 0xAF71, offset: 0xAF71, size: 0x8, addend: 0x0, symName: __ZNSt3__16vectorI11knight_dataNS_9allocatorIS1_EEE21__push_back_slow_pathIRKS1_EEvOT_, symObjAddr: 0x32D8, symBinAddr: 0x100005E7C, symSize: 0xD8 }
  - { offsetInCU: 0xAFCD, offset: 0xAFCD, size: 0x8, addend: 0x0, symName: __ZNSt3__117__compressed_pairIP11knight_dataNS_9allocatorIS1_EEE5firstB8ue170006Ev, symObjAddr: 0x33B0, symBinAddr: 0x100005F54, symSize: 0x24 }
  - { offsetInCU: 0xAFF2, offset: 0xAFF2, size: 0x8, addend: 0x0, symName: __ZNSt3__122__compressed_pair_elemIP11knight_dataLi0ELb0EE5__getB8ue170006Ev, symObjAddr: 0x33D4, symBinAddr: 0x100005F78, symSize: 0x14 }
  - { offsetInCU: 0xB02E, offset: 0xB02E, size: 0x8, addend: 0x0, symName: __ZNSt3__16vectorI11knight_dataNS_9allocatorIS1_EEE21_ConstructTransactionC1B8ue170006ERS4_m, symObjAddr: 0x33E8, symBinAddr: 0x100005F8C, symSize: 0x3C }
  - { offsetInCU: 0xB075, offset: 0xB075, size: 0x8, addend: 0x0, symName: __ZNSt3__116allocator_traitsINS_9allocatorI11knight_dataEEE9constructB8ue170006IS2_JRKS2_EvEEvRS3_PT_DpOT0_, symObjAddr: 0x3424, symBinAddr: 0x100005FC8, symSize: 0x34 }
  - { offsetInCU: 0xB0CB, offset: 0xB0CB, size: 0x8, addend: 0x0, symName: __ZNSt3__16vectorI11knight_dataNS_9allocatorIS1_EEE21_ConstructTransactionD1B8ue170006Ev, symObjAddr: 0x3458, symBinAddr: 0x100005FFC, symSize: 0x2C }
  - { offsetInCU: 0xB0F4, offset: 0xB0F4, size: 0x8, addend: 0x0, symName: __ZNSt3__16vectorI11knight_dataNS_9allocatorIS1_EEE21_ConstructTransactionC2B8ue170006ERS4_m, symObjAddr: 0x3484, symBinAddr: 0x100006028, symSize: 0x4C }
  - { offsetInCU: 0xB13A, offset: 0xB13A, size: 0x8, addend: 0x0, symName: __ZNSt3__19allocatorI11knight_dataE9constructB8ue170006IS1_JRKS1_EEEvPT_DpOT0_, symObjAddr: 0x34D0, symBinAddr: 0x100006074, symSize: 0x30 }
  - { offsetInCU: 0xB18E, offset: 0xB18E, size: 0x8, addend: 0x0, symName: __ZN11knight_dataC1ERKS_, symObjAddr: 0x3500, symBinAddr: 0x1000060A4, symSize: 0x34 }
  - { offsetInCU: 0xB1C0, offset: 0xB1C0, size: 0x8, addend: 0x0, symName: __ZN11knight_dataC2ERKS_, symObjAddr: 0x3534, symBinAddr: 0x1000060D8, symSize: 0xB4 }
  - { offsetInCU: 0xB1F3, offset: 0xB1F3, size: 0x8, addend: 0x0, symName: __ZNSt3__16vectorI11knight_dataNS_9allocatorIS1_EEE21_ConstructTransactionD2B8ue170006Ev, symObjAddr: 0x35E8, symBinAddr: 0x10000618C, symSize: 0x20 }
  - { offsetInCU: 0xB21B, offset: 0xB21B, size: 0x8, addend: 0x0, symName: __ZNKSt3__16vectorI11knight_dataNS_9allocatorIS1_EEE11__recommendB8ue170006Em, symObjAddr: 0x3608, symBinAddr: 0x1000061AC, symSize: 0xB4 }
  - { offsetInCU: 0xB26F, offset: 0xB26F, size: 0x8, addend: 0x0, symName: __ZNSt3__114__split_bufferI11knight_dataRNS_9allocatorIS1_EEEC1EmmS4_, symObjAddr: 0x36BC, symBinAddr: 0x100006260, symSize: 0x44 }
  - { offsetInCU: 0xB2C4, offset: 0xB2C4, size: 0x8, addend: 0x0, symName: __ZNSt3__114__split_bufferI11knight_dataRNS_9allocatorIS1_EEED1Ev, symObjAddr: 0x3810, symBinAddr: 0x1000063B4, symSize: 0x2C }
  - { offsetInCU: 0xB2EE, offset: 0xB2EE, size: 0x8, addend: 0x0, symName: __ZNKSt3__16vectorI11knight_dataNS_9allocatorIS1_EEE8max_sizeEv, symObjAddr: 0x383C, symBinAddr: 0x1000063E0, symSize: 0x60 }
  - { offsetInCU: 0xB314, offset: 0xB314, size: 0x8, addend: 0x0, symName: __ZNKSt3__16vectorI11knight_dataNS_9allocatorIS1_EEE20__throw_length_errorB8ue170006Ev, symObjAddr: 0x389C, symBinAddr: 0x100006440, symSize: 0x1C }
  - { offsetInCU: 0xB343, offset: 0xB343, size: 0x8, addend: 0x0, symName: __ZNSt3__116allocator_traitsINS_9allocatorI11knight_dataEEE8max_sizeB8ue170006IS3_vEEmRKS3_, symObjAddr: 0x3910, symBinAddr: 0x1000064B4, symSize: 0x24 }
  - { offsetInCU: 0xB370, offset: 0xB370, size: 0x8, addend: 0x0, symName: __ZNKSt3__16vectorI11knight_dataNS_9allocatorIS1_EEE7__allocB8ue170006Ev, symObjAddr: 0x3934, symBinAddr: 0x1000064D8, symSize: 0x28 }
  - { offsetInCU: 0xB395, offset: 0xB395, size: 0x8, addend: 0x0, symName: __ZNSt3__114numeric_limitsIlE3maxB8ue170006Ev, symObjAddr: 0x395C, symBinAddr: 0x100006500, symSize: 0x14 }
  - { offsetInCU: 0xB3BD, offset: 0xB3BD, size: 0x8, addend: 0x0, symName: __ZNKSt3__16__lessIvvEclB8ue170006ImmEEbRKT_RKT0_, symObjAddr: 0x39C4, symBinAddr: 0x100006568, symSize: 0x34 }
  - { offsetInCU: 0xB40F, offset: 0xB40F, size: 0x8, addend: 0x0, symName: __ZNKSt3__19allocatorI11knight_dataE8max_sizeB8ue170006Ev, symObjAddr: 0x39F8, symBinAddr: 0x10000659C, symSize: 0x18 }
  - { offsetInCU: 0xB432, offset: 0xB432, size: 0x8, addend: 0x0, symName: __ZNKSt3__117__compressed_pairIP11knight_dataNS_9allocatorIS1_EEE6secondB8ue170006Ev, symObjAddr: 0x3A10, symBinAddr: 0x1000065B4, symSize: 0x24 }
  - { offsetInCU: 0xB457, offset: 0xB457, size: 0x8, addend: 0x0, symName: __ZNKSt3__122__compressed_pair_elemINS_9allocatorI11knight_dataEELi1ELb1EE5__getB8ue170006Ev, symObjAddr: 0x3A34, symBinAddr: 0x1000065D8, symSize: 0x14 }
  - { offsetInCU: 0xB47B, offset: 0xB47B, size: 0x8, addend: 0x0, symName: __ZNSt3__123__libcpp_numeric_limitsIlLb1EE3maxB8ue170006Ev, symObjAddr: 0x3A48, symBinAddr: 0x1000065EC, symSize: 0x8 }
  - { offsetInCU: 0xB48F, offset: 0xB48F, size: 0x8, addend: 0x0, symName: __ZNSt3__114__split_bufferI11knight_dataRNS_9allocatorIS1_EEEC2EmmS4_, symObjAddr: 0x3AA4, symBinAddr: 0x100006648, symSize: 0xE0 }
  - { offsetInCU: 0xB500, offset: 0xB500, size: 0x8, addend: 0x0, symName: __ZNSt3__117__compressed_pairIP11knight_dataRNS_9allocatorIS1_EEEC1B8ue170006IDnS5_EEOT_OT0_, symObjAddr: 0x3B84, symBinAddr: 0x100006728, symSize: 0x3C }
  - { offsetInCU: 0xB556, offset: 0xB556, size: 0x8, addend: 0x0, symName: __ZNSt3__114__split_bufferI11knight_dataRNS_9allocatorIS1_EEE7__allocB8ue170006Ev, symObjAddr: 0x3C00, symBinAddr: 0x1000067A4, symSize: 0x28 }
  - { offsetInCU: 0xB57A, offset: 0xB57A, size: 0x8, addend: 0x0, symName: __ZNSt3__114__split_bufferI11knight_dataRNS_9allocatorIS1_EEE9__end_capB8ue170006Ev, symObjAddr: 0x3C28, symBinAddr: 0x1000067CC, symSize: 0x28 }
  - { offsetInCU: 0xB59E, offset: 0xB59E, size: 0x8, addend: 0x0, symName: __ZNSt3__117__compressed_pairIP11knight_dataRNS_9allocatorIS1_EEEC2B8ue170006IDnS5_EEOT_OT0_, symObjAddr: 0x3C50, symBinAddr: 0x1000067F4, symSize: 0x48 }
  - { offsetInCU: 0xB5F5, offset: 0xB5F5, size: 0x8, addend: 0x0, symName: __ZNSt3__122__compressed_pair_elemIRNS_9allocatorI11knight_dataEELi1ELb0EEC2B8ue170006IS4_vEEOT_, symObjAddr: 0x3C98, symBinAddr: 0x10000683C, symSize: 0x20 }
  - { offsetInCU: 0xB635, offset: 0xB635, size: 0x8, addend: 0x0, symName: __ZNSt3__19allocatorI11knight_dataE8allocateB8ue170006Em, symObjAddr: 0x3CB8, symBinAddr: 0x10000685C, symSize: 0x5C }
  - { offsetInCU: 0xB667, offset: 0xB667, size: 0x8, addend: 0x0, symName: __ZNSt3__117__compressed_pairIP11knight_dataRNS_9allocatorIS1_EEE6secondB8ue170006Ev, symObjAddr: 0x3D14, symBinAddr: 0x1000068B8, symSize: 0x28 }
  - { offsetInCU: 0xB68C, offset: 0xB68C, size: 0x8, addend: 0x0, symName: __ZNSt3__122__compressed_pair_elemIRNS_9allocatorI11knight_dataEELi1ELb0EE5__getB8ue170006Ev, symObjAddr: 0x3D3C, symBinAddr: 0x1000068E0, symSize: 0x18 }
  - { offsetInCU: 0xB6AF, offset: 0xB6AF, size: 0x8, addend: 0x0, symName: __ZNSt3__117__compressed_pairIP11knight_dataRNS_9allocatorIS1_EEE5firstB8ue170006Ev, symObjAddr: 0x3D54, symBinAddr: 0x1000068F8, symSize: 0x24 }
  - { offsetInCU: 0xB6D3, offset: 0xB6D3, size: 0x8, addend: 0x0, symName: __ZNSt3__116reverse_iteratorIP11knight_dataEC1B8ue170006ES2_, symObjAddr: 0x3EA4, symBinAddr: 0x100006A48, symSize: 0x34 }
  - { offsetInCU: 0xB70A, offset: 0xB70A, size: 0x8, addend: 0x0, symName: __ZNKSt3__116reverse_iteratorIP11knight_dataE4baseB8ue170006Ev, symObjAddr: 0x3ED8, symBinAddr: 0x100006A7C, symSize: 0x18 }
  - { offsetInCU: 0xB72D, offset: 0xB72D, size: 0x8, addend: 0x0, symName: __ZNKSt3__16vectorI11knight_dataNS_9allocatorIS1_EEE14__annotate_newB8ue170006Em, symObjAddr: 0x3F2C, symBinAddr: 0x100006AD0, symSize: 0xC8 }
  - { offsetInCU: 0xB760, offset: 0xB760, size: 0x8, addend: 0x0, symName: __ZNSt3__129_AllocatorDestroyRangeReverseINS_9allocatorI11knight_dataEENS_16reverse_iteratorIPS2_EEEC1B8ue170006ERS3_RS6_S9_, symObjAddr: 0x4040, symBinAddr: 0x100006BE4, symSize: 0x44 }
  - { offsetInCU: 0xB7B6, offset: 0xB7B6, size: 0x8, addend: 0x0, symName: __ZNSt3__116allocator_traitsINS_9allocatorI11knight_dataEEE9constructB8ue170006IS2_JS2_EvEEvRS3_PT_DpOT0_, symObjAddr: 0x40CC, symBinAddr: 0x100006C70, symSize: 0x34 }
  - { offsetInCU: 0xB80D, offset: 0xB80D, size: 0x8, addend: 0x0, symName: __ZNKSt3__116reverse_iteratorIP11knight_dataEdeB8ue170006Ev, symObjAddr: 0x4124, symBinAddr: 0x100006CC8, symSize: 0x28 }
  - { offsetInCU: 0xB83F, offset: 0xB83F, size: 0x8, addend: 0x0, symName: __ZNSt3__116reverse_iteratorIP11knight_dataEppB8ue170006Ev, symObjAddr: 0x414C, symBinAddr: 0x100006CF0, symSize: 0x20 }
  - { offsetInCU: 0xB863, offset: 0xB863, size: 0x8, addend: 0x0, symName: __ZNSt3__128__exception_guard_exceptionsINS_29_AllocatorDestroyRangeReverseINS_9allocatorI11knight_dataEENS_16reverse_iteratorIPS3_EEEEE10__completeB8ue170006Ev, symObjAddr: 0x416C, symBinAddr: 0x100006D10, symSize: 0x1C }
  - { offsetInCU: 0xB886, offset: 0xB886, size: 0x8, addend: 0x0, symName: __ZNSt3__128__exception_guard_exceptionsINS_29_AllocatorDestroyRangeReverseINS_9allocatorI11knight_dataEENS_16reverse_iteratorIPS3_EEEEED1B8ue170006Ev, symObjAddr: 0x4188, symBinAddr: 0x100006D2C, symSize: 0x2C }
  - { offsetInCU: 0xB8AE, offset: 0xB8AE, size: 0x8, addend: 0x0, symName: __ZNSt3__128__exception_guard_exceptionsINS_29_AllocatorDestroyRangeReverseINS_9allocatorI11knight_dataEENS_16reverse_iteratorIPS3_EEEEEC1B8ue170006ES8_, symObjAddr: 0x41B4, symBinAddr: 0x100006D58, symSize: 0x34 }
  - { offsetInCU: 0xB8E6, offset: 0xB8E6, size: 0x8, addend: 0x0, symName: __ZNSt3__128__exception_guard_exceptionsINS_29_AllocatorDestroyRangeReverseINS_9allocatorI11knight_dataEENS_16reverse_iteratorIPS3_EEEEEC2B8ue170006ES8_, symObjAddr: 0x41E8, symBinAddr: 0x100006D8C, symSize: 0x30 }
  - { offsetInCU: 0xB91E, offset: 0xB91E, size: 0x8, addend: 0x0, symName: __ZNSt3__129_AllocatorDestroyRangeReverseINS_9allocatorI11knight_dataEENS_16reverse_iteratorIPS2_EEEC2B8ue170006ERS3_RS6_S9_, symObjAddr: 0x4218, symBinAddr: 0x100006DBC, symSize: 0x38 }
  - { offsetInCU: 0xB973, offset: 0xB973, size: 0x8, addend: 0x0, symName: __ZNSt3__19allocatorI11knight_dataE9constructB8ue170006IS1_JS1_EEEvPT_DpOT0_, symObjAddr: 0x4250, symBinAddr: 0x100006DF4, symSize: 0x30 }
  - { offsetInCU: 0xB9C7, offset: 0xB9C7, size: 0x8, addend: 0x0, symName: __ZN11knight_dataC1EOS_, symObjAddr: 0x4280, symBinAddr: 0x100006E24, symSize: 0x34 }
  - { offsetInCU: 0xB9F9, offset: 0xB9F9, size: 0x8, addend: 0x0, symName: __ZN11knight_dataC2EOS_, symObjAddr: 0x42B4, symBinAddr: 0x100006E58, symSize: 0x68 }
  - { offsetInCU: 0xBA31, offset: 0xBA31, size: 0x8, addend: 0x0, symName: __ZNSt3__119__to_address_helperINS_16reverse_iteratorIP11knight_dataEEvE6__callB8ue170006ERKS4_, symObjAddr: 0x431C, symBinAddr: 0x100006EC0, symSize: 0x38 }
  - { offsetInCU: 0xBA53, offset: 0xBA53, size: 0x8, addend: 0x0, symName: __ZNKSt3__116reverse_iteratorIP11knight_dataEptB8ue170006Ev, symObjAddr: 0x4354, symBinAddr: 0x100006EF8, symSize: 0x24 }
  - { offsetInCU: 0xBA77, offset: 0xBA77, size: 0x8, addend: 0x0, symName: __ZNSt3__128__exception_guard_exceptionsINS_29_AllocatorDestroyRangeReverseINS_9allocatorI11knight_dataEENS_16reverse_iteratorIPS3_EEEEED2B8ue170006Ev, symObjAddr: 0x4378, symBinAddr: 0x100006F1C, symSize: 0x50 }
  - { offsetInCU: 0xBA9F, offset: 0xBA9F, size: 0x8, addend: 0x0, symName: __ZNKSt3__129_AllocatorDestroyRangeReverseINS_9allocatorI11knight_dataEENS_16reverse_iteratorIPS2_EEEclB8ue170006Ev, symObjAddr: 0x43C8, symBinAddr: 0x100006F6C, symSize: 0xB4 }
  - { offsetInCU: 0xBAC4, offset: 0xBAC4, size: 0x8, addend: 0x0, symName: __ZNSt3__116reverse_iteratorINS0_IP11knight_dataEEEC1B8ue170006ES3_, symObjAddr: 0x44EC, symBinAddr: 0x100007090, symSize: 0x3C }
  - { offsetInCU: 0xBAFA, offset: 0xBAFA, size: 0x8, addend: 0x0, symName: __ZNSt3__116reverse_iteratorINS0_IP11knight_dataEEEppB8ue170006Ev, symObjAddr: 0x45AC, symBinAddr: 0x100007150, symSize: 0x30 }
  - { offsetInCU: 0xBB1F, offset: 0xBB1F, size: 0x8, addend: 0x0, symName: __ZNKSt3__116reverse_iteratorINS0_IP11knight_dataEEE4baseB8ue170006Ev, symObjAddr: 0x45DC, symBinAddr: 0x100007180, symSize: 0x24 }
  - { offsetInCU: 0xBB48, offset: 0xBB48, size: 0x8, addend: 0x0, symName: __ZNSt3__119__to_address_helperINS_16reverse_iteratorINS1_IP11knight_dataEEEEvE6__callB8ue170006ERKS5_, symObjAddr: 0x4600, symBinAddr: 0x1000071A4, symSize: 0x38 }
  - { offsetInCU: 0xBB6A, offset: 0xBB6A, size: 0x8, addend: 0x0, symName: __ZNKSt3__116reverse_iteratorINS0_IP11knight_dataEEEptB8ue170006Ev, symObjAddr: 0x4638, symBinAddr: 0x1000071DC, symSize: 0x24 }
  - { offsetInCU: 0xBB8E, offset: 0xBB8E, size: 0x8, addend: 0x0, symName: __ZNKSt3__116reverse_iteratorINS0_IP11knight_dataEEEdeB8ue170006Ev, symObjAddr: 0x465C, symBinAddr: 0x100007200, symSize: 0x34 }
  - { offsetInCU: 0xBBC1, offset: 0xBBC1, size: 0x8, addend: 0x0, symName: __ZNSt3__116reverse_iteratorIP11knight_dataEmmB8ue170006Ev, symObjAddr: 0x4690, symBinAddr: 0x100007234, symSize: 0x20 }
  - { offsetInCU: 0xBBE5, offset: 0xBBE5, size: 0x8, addend: 0x0, symName: __ZNSt3__116reverse_iteratorINS0_IP11knight_dataEEEC2B8ue170006ES3_, symObjAddr: 0x46B0, symBinAddr: 0x100007254, symSize: 0x2C }
  - { offsetInCU: 0xBC1C, offset: 0xBC1C, size: 0x8, addend: 0x0, symName: __ZNSt3__116reverse_iteratorIP11knight_dataEC2B8ue170006ES2_, symObjAddr: 0x46DC, symBinAddr: 0x100007280, symSize: 0x28 }
  - { offsetInCU: 0xBC53, offset: 0xBC53, size: 0x8, addend: 0x0, symName: __ZNSt3__114__split_bufferI11knight_dataRNS_9allocatorIS1_EEED2Ev, symObjAddr: 0x4704, symBinAddr: 0x1000072A8, symSize: 0x8C }
  - { offsetInCU: 0xBC7D, offset: 0xBC7D, size: 0x8, addend: 0x0, symName: __ZNSt3__114__split_bufferI11knight_dataRNS_9allocatorIS1_EEE5clearB8ue170006Ev, symObjAddr: 0x4790, symBinAddr: 0x100007334, symSize: 0x28 }
  - { offsetInCU: 0xBCA1, offset: 0xBCA1, size: 0x8, addend: 0x0, symName: __ZNKSt3__114__split_bufferI11knight_dataRNS_9allocatorIS1_EEE8capacityB8ue170006Ev, symObjAddr: 0x47B8, symBinAddr: 0x10000735C, symSize: 0x40 }
  - { offsetInCU: 0xBCC5, offset: 0xBCC5, size: 0x8, addend: 0x0, symName: __ZNSt3__114__split_bufferI11knight_dataRNS_9allocatorIS1_EEE17__destruct_at_endB8ue170006EPS1_, symObjAddr: 0x47F8, symBinAddr: 0x10000739C, symSize: 0x2C }
  - { offsetInCU: 0xBCF7, offset: 0xBCF7, size: 0x8, addend: 0x0, symName: __ZNSt3__114__split_bufferI11knight_dataRNS_9allocatorIS1_EEE17__destruct_at_endB8ue170006EPS1_NS_17integral_constantIbLb0EEE, symObjAddr: 0x4824, symBinAddr: 0x1000073C8, symSize: 0x80 }
  - { offsetInCU: 0xBD36, offset: 0xBD36, size: 0x8, addend: 0x0, symName: __ZNKSt3__114__split_bufferI11knight_dataRNS_9allocatorIS1_EEE9__end_capB8ue170006Ev, symObjAddr: 0x48A4, symBinAddr: 0x100007448, symSize: 0x28 }
  - { offsetInCU: 0xBD5A, offset: 0xBD5A, size: 0x8, addend: 0x0, symName: __ZNKSt3__117__compressed_pairIP11knight_dataRNS_9allocatorIS1_EEE5firstB8ue170006Ev, symObjAddr: 0x48CC, symBinAddr: 0x100007470, symSize: 0x24 }
  - { offsetInCU: 0xBD7E, offset: 0xBD7E, size: 0x8, addend: 0x0, symName: __ZNSt3__16vectorI11knight_dataNS_9allocatorIS1_EEE17__destruct_at_endB8ue170006EPS1_, symObjAddr: 0x48F0, symBinAddr: 0x100007494, symSize: 0x4C }
  - { offsetInCU: 0xBDC0, offset: 0xBDC0, size: 0x8, addend: 0x0, symName: __ZNKSt3__16vectorI11knight_dataNS_9allocatorIS1_EEE17__annotate_shrinkB8ue170006Em, symObjAddr: 0x493C, symBinAddr: 0x1000074E0, symSize: 0xD0 }
...
